; Function Attrs: mustprogress uwtable
define void @_ZN7rocksdb12BlockBuilder14AddWithLastKeyERKNS_5SliceES3_S3_PS2_(ptr noundef nonnull align 8 dereferenceable(176) %0, ptr noundef nonnull align 8 dereferenceable(16) %1, ptr noundef nonnull align 8 dereferenceable(16) %2, ptr noundef nonnull readonly align 8 captures(none) dereferenceable(16) %3, ptr noundef %4) local_unnamed_addr #1 align 2 {
  %6 = alloca %"class.rocksdb::Slice", align 8
  %7 = getelementptr inbounds nuw i8, ptr %0, i64 32
  %8 = load i64, ptr %7, align 8, !tbaa !32
  %9 = getelementptr inbounds nuw i8, ptr %3, i64 8
  %10 = load i64, ptr %9, align 8, !tbaa !47
  call void @llvm.lifetime.start.p0(i64 16, ptr nonnull %6) #14
  %11 = load ptr, ptr %3, align 8, !tbaa !52
  %.not = icmp eq i64 %8, 0
  %12 = select i1 %.not, i64 0, i64 %10
  store ptr %11, ptr %6, align 8, !tbaa !52
  %13 = getelementptr inbounds nuw i8, ptr %6, i64 8
  store i64 %12, ptr %13, align 8, !tbaa !47
  call void @_ZN7rocksdb12BlockBuilder18AddWithLastKeyImplERKNS_5SliceES3_S3_PS2_m(ptr noundef nonnull align 8 dereferenceable(176) %0, ptr noundef nonnull align 8 dereferenceable(16) %1, ptr noundef nonnull align 8 dereferenceable(16) %2, ptr noundef nonnull align 8 dereferenceable(16) %6, ptr noundef %4, i64 noundef %8)
  call void @llvm.lifetime.end.p0(i64 16, ptr nonnull %6) #14
  ret void
}